; Function Attrs: mustprogress nounwind uwtable
define internal fastcc void @_ZN4llvm14DOTGraphTraitsIPN12_GLOBAL__N_118MachineGadgetGraphEE12getNodeLabelB5cxx11EPKNS_14ImmutableGraphIPNS_12MachineInstrEiE4NodeES3_(ptr dead_on_unwind noalias writable align 8 %0, ptr nocapture noundef readonly %1) unnamed_addr #0 align 2 {
  %3 = alloca %"class.std::allocator", align 1
  %4 = alloca %"class.std::__cxx11::basic_string", align 8
  %5 = alloca %"class.llvm::raw_string_ostream", align 8
  %6 = getelementptr inbounds nuw i8, ptr %1, i64 8
  %7 = load ptr, ptr %6, align 8
  %8 = icmp eq ptr %7, null
  br i1 %8, label %9, label %11

9:                                                ; preds = %2
  call void @_ZNSaIcEC1Ev(ptr noundef nonnull align 1 dereferenceable(1) %3) #20
  %10 = call noundef ptr @_ZNSt7__cxx1112basic_stringIcSt11char_traitsIcESaIcEE13_M_local_dataEv(ptr noundef nonnull align 8 dereferenceable(32) %0) #20
  call void @_ZNSt7__cxx1112basic_stringIcSt11char_traitsIcESaIcEE12_Alloc_hiderC1EPcRKS3_(ptr noundef nonnull align 8 dereferenceable(8) %0, ptr noundef %10, ptr noundef nonnull align 1 dereferenceable(1) %3) #20
  call void @_ZNSt7__cxx1112basic_stringIcSt11char_traitsIcESaIcEE12_M_constructIPKcEEvT_S8_St20forward_iterator_tag(ptr noundef nonnull align 8 dereferenceable(32) %0, ptr noundef nonnull @.str.71, ptr noundef nonnull getelementptr inbounds (i8, ptr @.str.71, i64 4))
  call void @_ZNSaIcED1Ev(ptr noundef nonnull align 1 dereferenceable(1) %3) #20
  br label %19

11:                                               ; preds = %2
  call void @_ZNSt7__cxx1112basic_stringIcSt11char_traitsIcESaIcEEC1Ev(ptr noundef nonnull align 8 dereferenceable(32) %4) #20
  %12 = getelementptr inbounds nuw i8, ptr %5, i64 8
  store i32 0, ptr %12, align 8
  %13 = getelementptr inbounds nuw i8, ptr %5, i64 40
  store i8 0, ptr %13, align 8
  %14 = getelementptr inbounds nuw i8, ptr %5, i64 44
  store i32 1, ptr %14, align 4
  %15 = getelementptr inbounds nuw i8, ptr %5, i64 16
  call void @llvm.memset.p0.i64(ptr noundef nonnull align 8 dereferenceable(24) %15, i8 0, i64 24, i1 false)
  store ptr getelementptr inbounds inrange(-16, 104) (i8, ptr @_ZTVN4llvm18raw_string_ostreamE, i64 16), ptr %5, align 8
  %16 = getelementptr inbounds nuw i8, ptr %5, i64 48
  store ptr %4, ptr %16, align 8
  call void @_ZN4llvm11raw_ostream16SetBufferAndModeEPcmNS0_10BufferKindE(ptr noundef nonnull align 8 dereferenceable(48) %5, ptr noundef null, i64 noundef 0, i32 noundef 0) #20
  %17 = load ptr, ptr %6, align 8
  call void @_ZNK4llvm12MachineInstr5printERNS_11raw_ostreamEbbbbPKNS_15TargetInstrInfoE(ptr noundef nonnull align 8 dereferenceable(70) %17, ptr noundef nonnull align 8 dereferenceable(48) %5, i1 noundef zeroext true, i1 noundef zeroext false, i1 noundef zeroext false, i1 noundef zeroext true, ptr noundef null) #20
  %18 = load ptr, ptr %16, align 8
  call void @_ZNSt7__cxx1112basic_stringIcSt11char_traitsIcESaIcEEC1ERKS4_(ptr noundef nonnull align 8 dereferenceable(32) %0, ptr noundef nonnull align 8 dereferenceable(32) %18) #20
  call void @_ZN4llvm11raw_ostreamD2Ev(ptr noundef nonnull align 8 dereferenceable(48) %5) #20
  call void @_ZNSt7__cxx1112basic_stringIcSt11char_traitsIcESaIcEED1Ev(ptr noundef nonnull align 8 dereferenceable(32) %4) #20
  br label %19

19:                                               ; preds = %11, %9
  ret void
}